target datalayout = "e-m:e-p270:32:32-p271:32:32-p272:64:64-i64:64-i128:128-f80:128-n8:16:32:64-S128"
target triple = "x86_64-pc-linux-gnu"

; Function Attrs: nounwind uwtable
define void @extraProfileUpdateTopLevel(ptr noundef %0, i32 noundef %1, ptr noundef %2) #0 {
  %4 = alloca ptr, align 8
  %5 = alloca i32, align 4
  %6 = alloca ptr, align 8
  %7 = alloca ptr, align 8
  store ptr %0, ptr %4, align 8, !tbaa !41
  store i32 %1, ptr %5, align 4, !tbaa !10
  store ptr %2, ptr %6, align 8, !tbaa !28
  call void @llvm.lifetime.start.p0(i64 8, ptr %7) #6
  %8 = load ptr, ptr %4, align 8, !tbaa !41
  %9 = load ptr, ptr %6, align 8, !tbaa !28
  %10 = call i32 @st__find_or_add(ptr noundef %8, ptr noundef %9, ptr noundef %7)
  %11 = icmp ne i32 %10, 0
  br i1 %11, label %12, label %21

12:                                               ; preds = %3
  %13 = load ptr, ptr %7, align 8, !tbaa !31
  %14 = load i32, ptr %13, align 4, !tbaa !10
  %15 = load i32, ptr %5, align 4, !tbaa !10
  %16 = icmp sgt i32 %14, %15
  br i1 %16, label %17, label %20

17:                                               ; preds = %12
  %18 = load i32, ptr %5, align 4, !tbaa !10
  %19 = load ptr, ptr %7, align 8, !tbaa !31
  store i32 %18, ptr %19, align 4, !tbaa !10
  br label %20

20:                                               ; preds = %17, %12
  br label %24

21:                                               ; preds = %3
  %22 = load i32, ptr %5, align 4, !tbaa !10
  %23 = load ptr, ptr %7, align 8, !tbaa !31
  store i32 %22, ptr %23, align 4, !tbaa !10
  br label %24

24:                                               ; preds = %21, %20
  call void @llvm.lifetime.end.p0(i64 8, ptr %7) #6
  ret void
}