; Function Attrs: nounwind uwtable
define void @extraProfileUpdateTopLevel(ptr noundef %0, i32 noundef %1, ptr noundef %2) local_unnamed_addr #0 {
  %4 = alloca ptr, align 8
  call void @llvm.lifetime.start.p0(i64 8, ptr nonnull %4) #11
  %5 = call i32 @st__find_or_add(ptr noundef %0, ptr noundef %2, ptr noundef nonnull %4) #11
  %.not = icmp eq i32 %5, 0
  %6 = load ptr, ptr %4, align 8, !tbaa !53
  br i1 %.not, label %.sink.split, label %7

7:                                                ; preds = %3
  %8 = load i32, ptr %6, align 4, !tbaa !29
  %9 = icmp sgt i32 %8, %1
  br i1 %9, label %.sink.split, label %10

.sink.split:                                      ; preds = %3, %7
  store i32 %1, ptr %6, align 4, !tbaa !29
  br label %10

10:                                               ; preds = %.sink.split, %7
  call void @llvm.lifetime.end.p0(i64 8, ptr nonnull %4) #11
  ret void
}